
TIMER_OVERFLOW_INTERRUPT_CTC.elf:     file format elf32-avr

Sections:
Idx Name          Size      VMA       LMA       File off  Algn
  0 .data         00000000  00800100  00800100  00000176  2**0
                  CONTENTS, ALLOC, LOAD, DATA
  1 .text         00000102  00000000  00000000  00000074  2**1
                  CONTENTS, ALLOC, LOAD, READONLY, CODE
  2 .bss          00000002  00800100  00800100  00000176  2**0
                  ALLOC
  3 .comment      00000030  00000000  00000000  00000176  2**0
                  CONTENTS, READONLY
  4 .note.gnu.avr.deviceinfo 00000040  00000000  00000000  000001a8  2**2
                  CONTENTS, READONLY
  5 .debug_aranges 00000028  00000000  00000000  000001e8  2**0
                  CONTENTS, READONLY, DEBUGGING
  6 .debug_info   000006b4  00000000  00000000  00000210  2**0
                  CONTENTS, READONLY, DEBUGGING
  7 .debug_abbrev 00000628  00000000  00000000  000008c4  2**0
                  CONTENTS, READONLY, DEBUGGING
  8 .debug_line   00000221  00000000  00000000  00000eec  2**0
                  CONTENTS, READONLY, DEBUGGING
  9 .debug_frame  00000048  00000000  00000000  00001110  2**2
                  CONTENTS, READONLY, DEBUGGING
 10 .debug_str    0000037e  00000000  00000000  00001158  2**0
                  CONTENTS, READONLY, DEBUGGING
 11 .debug_loc    00000049  00000000  00000000  000014d6  2**0
                  CONTENTS, READONLY, DEBUGGING
 12 .debug_ranges 00000018  00000000  00000000  0000151f  2**0
                  CONTENTS, READONLY, DEBUGGING

Disassembly of section .text:

00000000 <__vectors>:
   0:	0c 94 34 00 	jmp	0x68	; 0x68 <__ctors_end>
   4:	0c 94 46 00 	jmp	0x8c	; 0x8c <__bad_interrupt>
   8:	0c 94 46 00 	jmp	0x8c	; 0x8c <__bad_interrupt>
   c:	0c 94 46 00 	jmp	0x8c	; 0x8c <__bad_interrupt>
  10:	0c 94 46 00 	jmp	0x8c	; 0x8c <__bad_interrupt>
  14:	0c 94 46 00 	jmp	0x8c	; 0x8c <__bad_interrupt>
  18:	0c 94 46 00 	jmp	0x8c	; 0x8c <__bad_interrupt>
  1c:	0c 94 46 00 	jmp	0x8c	; 0x8c <__bad_interrupt>
  20:	0c 94 46 00 	jmp	0x8c	; 0x8c <__bad_interrupt>
  24:	0c 94 46 00 	jmp	0x8c	; 0x8c <__bad_interrupt>
  28:	0c 94 46 00 	jmp	0x8c	; 0x8c <__bad_interrupt>
  2c:	0c 94 46 00 	jmp	0x8c	; 0x8c <__bad_interrupt>
  30:	0c 94 46 00 	jmp	0x8c	; 0x8c <__bad_interrupt>
  34:	0c 94 46 00 	jmp	0x8c	; 0x8c <__bad_interrupt>
  38:	0c 94 48 00 	jmp	0x90	; 0x90 <__vector_14>
  3c:	0c 94 46 00 	jmp	0x8c	; 0x8c <__bad_interrupt>
  40:	0c 94 46 00 	jmp	0x8c	; 0x8c <__bad_interrupt>
  44:	0c 94 46 00 	jmp	0x8c	; 0x8c <__bad_interrupt>
  48:	0c 94 46 00 	jmp	0x8c	; 0x8c <__bad_interrupt>
  4c:	0c 94 46 00 	jmp	0x8c	; 0x8c <__bad_interrupt>
  50:	0c 94 46 00 	jmp	0x8c	; 0x8c <__bad_interrupt>
  54:	0c 94 46 00 	jmp	0x8c	; 0x8c <__bad_interrupt>
  58:	0c 94 46 00 	jmp	0x8c	; 0x8c <__bad_interrupt>
  5c:	0c 94 46 00 	jmp	0x8c	; 0x8c <__bad_interrupt>
  60:	0c 94 46 00 	jmp	0x8c	; 0x8c <__bad_interrupt>
  64:	0c 94 46 00 	jmp	0x8c	; 0x8c <__bad_interrupt>

00000068 <__ctors_end>:
  68:	11 24       	eor	r1, r1
  6a:	1f be       	out	0x3f, r1	; 63
  6c:	cf ef       	ldi	r28, 0xFF	; 255
  6e:	d8 e0       	ldi	r29, 0x08	; 8
  70:	de bf       	out	0x3e, r29	; 62
  72:	cd bf       	out	0x3d, r28	; 61

00000074 <__do_clear_bss>:
  74:	21 e0       	ldi	r18, 0x01	; 1
  76:	a0 e0       	ldi	r26, 0x00	; 0
  78:	b1 e0       	ldi	r27, 0x01	; 1
  7a:	01 c0       	rjmp	.+2      	; 0x7e <.do_clear_bss_start>

0000007c <.do_clear_bss_loop>:
  7c:	1d 92       	st	X+, r1

0000007e <.do_clear_bss_start>:
  7e:	a2 30       	cpi	r26, 0x02	; 2
  80:	b2 07       	cpc	r27, r18
  82:	e1 f7       	brne	.-8      	; 0x7c <.do_clear_bss_loop>
  84:	0e 94 6e 00 	call	0xdc	; 0xdc <main>
  88:	0c 94 7f 00 	jmp	0xfe	; 0xfe <_exit>

0000008c <__bad_interrupt>:
  8c:	0c 94 00 00 	jmp	0	; 0x0 <__vectors>

00000090 <__vector_14>:


volatile uint16_t count = 0;

ISR(TIMER0_COMPA_vect) //INTERRUPT SERVICE ROUTINE,TIMER0_COMPA_vect
{
  90:	1f 92       	push	r1
  92:	0f 92       	push	r0
  94:	0f b6       	in	r0, 0x3f	; 63
  96:	0f 92       	push	r0
  98:	11 24       	eor	r1, r1
  9a:	8f 93       	push	r24
  9c:	9f 93       	push	r25
	count++;
  9e:	80 91 00 01 	lds	r24, 0x0100	; 0x800100 <__DATA_REGION_ORIGIN__>
  a2:	90 91 01 01 	lds	r25, 0x0101	; 0x800101 <__DATA_REGION_ORIGIN__+0x1>
  a6:	01 96       	adiw	r24, 0x01	; 1
  a8:	90 93 01 01 	sts	0x0101, r25	; 0x800101 <__DATA_REGION_ORIGIN__+0x1>
  ac:	80 93 00 01 	sts	0x0100, r24	; 0x800100 <__DATA_REGION_ORIGIN__>
	if (count >= 125) // 125 OVERFLOWS REQUIRED FOR 2 SECONDS DELAY.
  b0:	80 91 00 01 	lds	r24, 0x0100	; 0x800100 <__DATA_REGION_ORIGIN__>
  b4:	90 91 01 01 	lds	r25, 0x0101	; 0x800101 <__DATA_REGION_ORIGIN__+0x1>
  b8:	8d 37       	cpi	r24, 0x7D	; 125
  ba:	91 05       	cpc	r25, r1
  bc:	40 f0       	brcs	.+16     	; 0xce <__vector_14+0x3e>
	{
		PORTB ^= (1 << PORTB5); //TOGGLE LED
  be:	95 b1       	in	r25, 0x05	; 5
  c0:	80 e2       	ldi	r24, 0x20	; 32
  c2:	89 27       	eor	r24, r25
  c4:	85 b9       	out	0x05, r24	; 5
		count = 0;
  c6:	10 92 01 01 	sts	0x0101, r1	; 0x800101 <__DATA_REGION_ORIGIN__+0x1>
  ca:	10 92 00 01 	sts	0x0100, r1	; 0x800100 <__DATA_REGION_ORIGIN__>
	}
		
	
}
  ce:	9f 91       	pop	r25
  d0:	8f 91       	pop	r24
  d2:	0f 90       	pop	r0
  d4:	0f be       	out	0x3f, r0	; 63
  d6:	0f 90       	pop	r0
  d8:	1f 90       	pop	r1
  da:	18 95       	reti

000000dc <main>:
int main(void)
{
    DDRB |= (1 << DDB5);
  dc:	84 b1       	in	r24, 0x04	; 4
  de:	80 62       	ori	r24, 0x20	; 32
  e0:	84 b9       	out	0x04, r24	; 4
	OCR0A = 249;
  e2:	89 ef       	ldi	r24, 0xF9	; 249
  e4:	87 bd       	out	0x27, r24	; 39
	TCCR0A = (1 << WGM01); // FOR CTC
  e6:	82 e0       	ldi	r24, 0x02	; 2
  e8:	84 bd       	out	0x24, r24	; 36
	TCCR0B |= (1 << CS00) | (1 << CS02); //1024 PRESCALING
  ea:	85 b5       	in	r24, 0x25	; 37
  ec:	85 60       	ori	r24, 0x05	; 5
  ee:	85 bd       	out	0x25, r24	; 37
	TIMSK0 |= (1 << OCIE0A);  //ENABLING TIMER OVERFLOW INTERRUPT FOR TIMER0 IN CTC MODE
  f0:	ee e6       	ldi	r30, 0x6E	; 110
  f2:	f0 e0       	ldi	r31, 0x00	; 0
  f4:	80 81       	ld	r24, Z
  f6:	82 60       	ori	r24, 0x02	; 2
  f8:	80 83       	st	Z, r24
	sei(); //ENABLING GLOBAL INTERRUPT
  fa:	78 94       	sei
  fc:	ff cf       	rjmp	.-2      	; 0xfc <main+0x20>

000000fe <_exit>:
  fe:	f8 94       	cli

00000100 <__stop_program>:
 100:	ff cf       	rjmp	.-2      	; 0x100 <__stop_program>
